; Function Attrs: mustprogress uwtable
define noundef range(i32 -1, 3) i32 @_ZNK10open_spiel12breakthrough17BreakthroughState17observation_planeEii(ptr noundef nonnull readonly align 8 captures(none) dereferenceable(112) %0, i32 noundef %1, i32 noundef %2) local_unnamed_addr #3 align 2 personality ptr @__gxx_personality_v0 {
  %4 = alloca %"class.std::__cxx11::basic_string", align 8
  %5 = getelementptr inbounds nuw i8, ptr %0, i64 88
  %6 = getelementptr inbounds nuw i8, ptr %0, i64 84
  %7 = load i32, ptr %6, align 4
  %8 = mul nsw i32 %7, %1
  %9 = add nsw i32 %8, %2
  %10 = sext i32 %9 to i64
  %11 = load ptr, ptr %5, align 8
  %12 = getelementptr inbounds i32, ptr %11, i64 %10
  %13 = load i32, ptr %12, align 4
  %14 = icmp ult i32 %13, 3
  br i1 %14, label %switch.lookup, label %15

15:                                               ; preds = %3
  %16 = tail call noundef nonnull align 8 dereferenceable(8) ptr @_ZStlsISt11char_traitsIcEERSt13basic_ostreamIcT_ES5_PKc(ptr noundef nonnull align 8 dereferenceable(8) @_ZSt4cerr, ptr noundef nonnull @.str.36)
  %17 = load i32, ptr %6, align 4
  %18 = mul nsw i32 %17, %1
  %19 = add nsw i32 %18, %2
  %20 = sext i32 %19 to i64
  %21 = load ptr, ptr %5, align 8
  %22 = getelementptr inbounds i32, ptr %21, i64 %20
  %23 = load i32, ptr %22, align 4
  call fastcc void @_ZN10open_spiel12breakthrough12_GLOBAL__N_112CellToStringB5cxx11ENS0_9CellStateE(ptr dead_on_unwind noalias writable align 8 %4, i32 noundef %23)
  %24 = invoke noundef nonnull align 8 dereferenceable(8) ptr @_ZStlsIcSt11char_traitsIcESaIcEERSt13basic_ostreamIT_T0_ES7_RKNSt7__cxx1112basic_stringIS4_S5_T1_EE(ptr noundef nonnull align 8 dereferenceable(8) %16, ptr noundef nonnull align 8 dereferenceable(32) %4)
          to label %25 unwind label %28

25:                                               ; preds = %15
  %26 = invoke noundef nonnull align 8 dereferenceable(8) ptr @_ZNSolsEPFRSoS_E(ptr noundef nonnull align 8 dereferenceable(8) %24, ptr noundef nonnull @_ZSt4endlIcSt11char_traitsIcEERSt13basic_ostreamIT_T0_ES6_)
          to label %27 unwind label %28

27:                                               ; preds = %25
  call void @_ZNSt7__cxx1112basic_stringIcSt11char_traitsIcESaIcEED1Ev(ptr noundef nonnull align 8 dereferenceable(32) %4) #25
  br label %31

28:                                               ; preds = %25, %15
  %29 = landingpad { ptr, i32 }
          cleanup
  call void @_ZNSt7__cxx1112basic_stringIcSt11char_traitsIcESaIcEED1Ev(ptr noundef nonnull align 8 dereferenceable(32) %4) #25
  resume { ptr, i32 } %29

switch.lookup:                                    ; preds = %3
  %30 = zext nneg i32 %13 to i64
  %switch.gep = getelementptr inbounds nuw [3 x i32], ptr @switch.table._ZNK10open_spiel12breakthrough17BreakthroughState17ObservationTensorEiN4absl7debian24SpanIfEE, i64 0, i64 %30
  %switch.load = load i32, ptr %switch.gep, align 4
  br label %31

31:                                               ; preds = %switch.lookup, %27
  %.0 = phi i32 [ -1, %27 ], [ %switch.load, %switch.lookup ]
  ret i32 %.0
}